(dp0
S'isShellCmd'
p1
I00
sS'cmd'
p2
(lp3
S'/apps/lab/miket/manta/0.29.5/libexec/EstimateSVLoci'
p4
aS'--output-file'
p5
aS'/PHShome/hw878/Software/Manta/workspace/svLocusGraph.bin.tmpdir/svLocusGraph.chromId_011_12_0005.bin'
p6
aS'--align-stats'
p7
aS'/PHShome/hw878/Software/Manta/workspace/alignmentStats.xml'
p8
aS'--region'
p9
aS'12:55771626-66925950'
p10
aS'--min-candidate-sv-size'
p11
aS'8'
p12
aS'--min-edge-observations'
p13
aS'3'
p14
aS'--ref'
p15
aS'/PHShome/hw878/Rawdata/manta_practice.fa'
p16
aS'--align-file'
p17
aS'/PHShome/hw878/Rawdata/practice_bams/14415.fa.bam'
p18
aS'--chrom-depth'
p19
aS'/PHShome/hw878/Software/Manta/workspace/chromDepth.txt'
p20
asS'errFile'
p21
S'/PHShome/hw878/Software/Manta/workspace/pyflow.data/logs/pyflow_tasks_stderr_log.txt'
p22
sS'outFile'
p23
S'/PHShome/hw878/Software/Manta/workspace/pyflow.data/logs/pyflow_tasks_stdout_log.txt'
p24
sS'env'
p25
NsS'nCores'
p26
I1
sS'cwd'
p27
S''
p28
s.