(dp0
S'isShellCmd'
p1
I00
sS'cmd'
p2
(lp3
S'/usr/bin/python'
p4
aS'-E'
p5
aS'/apps/lab/miket/manta/0.29.5/libexec/sortEdgeLogs.py'
p6
aS'-f'
p7
aS'/PHShome/hw878/Software/Manta/workspace/svHyGen/list.edgeRuntimeLog.txt'
p8
aS'-o'
p9
aS'/PHShome/hw878/Software/Manta/workspace/edgeRuntimeLog.txt'
p10
asS'errFile'
p11
S'/PHShome/hw878/Software/Manta/workspace/pyflow.data/logs/pyflow_tasks_stderr_log.txt'
p12
sS'outFile'
p13
S'/PHShome/hw878/Software/Manta/workspace/pyflow.data/logs/pyflow_tasks_stdout_log.txt'
p14
sS'env'
p15
NsS'nCores'
p16
I1
sS'cwd'
p17
S''
p18
s.