(dp0
S'isShellCmd'
p1
I01
sS'cmd'
p2
S'"/usr/bin/python" -E "/apps/lab/miket/manta/0.29.5/libexec/vcfCmdlineSwapper.py" "/apps/lab/miket/manta/0.29.5/bin/configManta.py --bam /PHShome/hw878/Rawdata/practice_bams/14415.fa.bam --referenceFasta /PHShome/hw878/Rawdata/manta_practice.fa --runDir ./" < "/PHShome/hw878/Software/Manta/workspace/svHyGen/candidateSV.0000.vcf" > "/PHShome/hw878/Software/Manta/workspace/svHyGen/candidateSV.0000.vcf.reheader.tmp" && mv "/PHShome/hw878/Software/Manta/workspace/svHyGen/candidateSV.0000.vcf.reheader.tmp" "/PHShome/hw878/Software/Manta/workspace/svHyGen/candidateSV.0000.vcf"'
p3
sS'errFile'
p4
S'/PHShome/hw878/Software/Manta/workspace/pyflow.data/logs/pyflow_tasks_stderr_log.txt'
p5
sS'outFile'
p6
S'/PHShome/hw878/Software/Manta/workspace/pyflow.data/logs/pyflow_tasks_stdout_log.txt'
p7
sS'env'
p8
NsS'nCores'
p9
I1
sS'cwd'
p10
S''
p11
s.