(dp0
S'isShellCmd'
p1
I00
sS'cmd'
p2
(lp3
S'/apps/lab/miket/manta/0.29.5/libexec/GenerateSVCandidates'
p4
aS'--align-stats'
p5
aS'/PHShome/hw878/Software/Manta/workspace/alignmentStats.xml'
p6
aS'--graph-file'
p7
aS'/PHShome/hw878/Software/Manta/workspace/svLocusGraph.bin'
p8
aS'--bin-index'
p9
aS'226'
p10
aS'--bin-count'
p11
aS'256'
p12
aS'--min-candidate-sv-size'
p13
aS'8'
p14
aS'--min-candidate-spanning-count'
p15
aS'3'
p16
aS'--min-scored-sv-size'
p17
aS'51'
p18
aS'--ref'
p19
aS'/PHShome/hw878/Rawdata/manta_practice.fa'
p20
aS'--candidate-output-file'
p21
aS'/PHShome/hw878/Software/Manta/workspace/svHyGen/candidateSV.0226.vcf'
p22
aS'--diploid-output-file'
p23
aS'/PHShome/hw878/Software/Manta/workspace/svHyGen/diploidSV.0226.vcf'
p24
aS'--min-qual-score'
p25
aS'10'
p26
aS'--min-pass-qual-score'
p27
aS'20'
p28
aS'--min-pass-gt-score'
p29
aS'15'
p30
aS'--chrom-depth'
p31
aS'/PHShome/hw878/Software/Manta/workspace/chromDepth.txt'
p32
aS'--edge-runtime-log'
p33
aS'/PHShome/hw878/Software/Manta/workspace/svHyGen/edgeRuntimeLog.0226.txt'
p34
aS'--edge-stats-log'
p35
aS'/PHShome/hw878/Software/Manta/workspace/svHyGen/edgeStats.0226.xml'
p36
aS'--align-file'
p37
aS'/PHShome/hw878/Rawdata/practice_bams/14415.fa.bam'
p38
asS'errFile'
p39
S'/PHShome/hw878/Software/Manta/workspace/pyflow.data/logs/pyflow_tasks_stderr_log.txt'
p40
sS'outFile'
p41
S'/PHShome/hw878/Software/Manta/workspace/pyflow.data/logs/pyflow_tasks_stdout_log.txt'
p42
sS'env'
p43
NsS'nCores'
p44
I1
sS'cwd'
p45
S''
p46
s.