(dp0
S'isShellCmd'
p1
I00
sS'cmd'
p2
(lp3
S'/apps/lab/miket/manta/0.29.5/libexec/GetChromDepth'
p4
aS'--align-file'
p5
aS'/PHShome/hw878/Rawdata/practice_bams/14415.fa.bam'
p6
aS'--output'
p7
aS'/PHShome/hw878/Software/Manta/workspace/chromDepth.txt.tmpdir/chromDepth.txt.000.txt.tmpdir/chromDepth.txt.000.txt_024_MT_to_031_GL000235_1'
p8
aS'--chrom'
p9
aS'MT'
p10
ag9
aS'GL000207.1'
p11
ag9
aS'GL000226.1'
p12
ag9
aS'GL000229.1'
p13
ag9
aS'GL000231.1'
p14
ag9
aS'GL000210.1'
p15
ag9
aS'GL000239.1'
p16
ag9
aS'GL000235.1'
p17
asS'errFile'
p18
S'/PHShome/hw878/Software/Manta/workspace/pyflow.data/logs/pyflow_tasks_stderr_log.txt'
p19
sS'outFile'
p20
S'/PHShome/hw878/Software/Manta/workspace/pyflow.data/logs/pyflow_tasks_stdout_log.txt'
p21
sS'env'
p22
NsS'nCores'
p23
I1
sS'cwd'
p24
S''
p25
s.