(dp0
S'isShellCmd'
p1
I00
sS'cmd'
p2
(lp3
S'/apps/lab/miket/manta/0.29.5/libexec/MergeEdgeStats'
p4
aS'--stats-file-list'
p5
aS'/PHShome/hw878/Software/Manta/workspace/svHyGen/list.edgeStats.txt'
p6
aS'--output-file'
p7
aS'/PHShome/hw878/Software/Manta/results/stats/svCandidateGenerationStats.xml'
p8
aS'--report-file'
p9
aS'/PHShome/hw878/Software/Manta/results/stats/svCandidateGenerationStats.tsv'
p10
asS'errFile'
p11
S'/PHShome/hw878/Software/Manta/workspace/pyflow.data/logs/pyflow_tasks_stderr_log.txt'
p12
sS'outFile'
p13
S'/PHShome/hw878/Software/Manta/workspace/pyflow.data/logs/pyflow_tasks_stdout_log.txt'
p14
sS'env'
p15
NsS'nCores'
p16
I1
sS'cwd'
p17
S''
p18
s.