(dp0
S'isShellCmd'
p1
I00
sS'cmd'
p2
(lp3
S'/apps/lab/miket/manta/0.29.5/libexec/GetChromDepth'
p4
aS'--align-file'
p5
aS'/PHShome/hw878/Rawdata/practice_bams/14415.fa.bam'
p6
aS'--output'
p7
aS'/PHShome/hw878/Software/Manta/workspace/chromDepth.txt.tmpdir/chromDepth.txt.000.txt.tmpdir/chromDepth.txt.000.txt_056_GL000198_1_to_057_GL000208_1'
p8
aS'--chrom'
p9
aS'GL000198.1'
p10
ag9
aS'GL000208.1'
p11
asS'errFile'
p12
S'/PHShome/hw878/Software/Manta/workspace/pyflow.data/logs/pyflow_tasks_stderr_log.txt'
p13
sS'outFile'
p14
S'/PHShome/hw878/Software/Manta/workspace/pyflow.data/logs/pyflow_tasks_stdout_log.txt'
p15
sS'env'
p16
NsS'nCores'
p17
I1
sS'cwd'
p18
S''
p19
s.