(dp0
S'isShellCmd'
p1
I00
sS'cmd'
p2
(lp3
S'/apps/lab/miket/manta/0.29.5/libexec/EstimateSVLoci'
p4
aS'--output-file'
p5
aS'/PHShome/hw878/Software/Manta/workspace/svLocusGraph.bin.tmpdir/svLocusGraph.chromId_024_MT_0000_to_chromId_031_GL000235_1_0000.bin'
p6
aS'--align-stats'
p7
aS'/PHShome/hw878/Software/Manta/workspace/alignmentStats.xml'
p8
aS'--region'
p9
aS'MT:1-16569'
p10
ag9
aS'GL000207.1:1-4262'
p11
ag9
aS'GL000226.1:1-15008'
p12
ag9
aS'GL000229.1:1-19913'
p13
ag9
aS'GL000231.1:1-27386'
p14
ag9
aS'GL000210.1:1-27682'
p15
ag9
aS'GL000239.1:1-33824'
p16
ag9
aS'GL000235.1:1-34474'
p17
aS'--min-candidate-sv-size'
p18
aS'8'
p19
aS'--min-edge-observations'
p20
aS'3'
p21
aS'--ref'
p22
aS'/PHShome/hw878/Rawdata/manta_practice.fa'
p23
aS'--align-file'
p24
aS'/PHShome/hw878/Rawdata/practice_bams/14415.fa.bam'
p25
aS'--chrom-depth'
p26
aS'/PHShome/hw878/Software/Manta/workspace/chromDepth.txt'
p27
asS'errFile'
p28
S'/PHShome/hw878/Software/Manta/workspace/pyflow.data/logs/pyflow_tasks_stderr_log.txt'
p29
sS'outFile'
p30
S'/PHShome/hw878/Software/Manta/workspace/pyflow.data/logs/pyflow_tasks_stdout_log.txt'
p31
sS'env'
p32
NsS'nCores'
p33
I1
sS'cwd'
p34
S''
p35
s.