(dp0
S'isShellCmd'
p1
I00
sS'cmd'
p2
(lp3
S'/apps/lab/miket/manta/0.29.5/libexec/EstimateSVLoci'
p4
aS'--output-file'
p5
aS'/PHShome/hw878/Software/Manta/workspace/svLocusGraph.bin.tmpdir/svLocusGraph.chromId_050_GL000243_1_0000_to_chromId_053_GL000237_1_0000.bin'
p6
aS'--align-stats'
p7
aS'/PHShome/hw878/Software/Manta/workspace/alignmentStats.xml'
p8
aS'--region'
p9
aS'GL000243.1:1-43341'
p10
ag9
aS'GL000242.1:1-43523'
p11
ag9
aS'GL000230.1:1-43691'
p12
ag9
aS'GL000237.1:1-45867'
p13
aS'--min-candidate-sv-size'
p14
aS'8'
p15
aS'--min-edge-observations'
p16
aS'3'
p17
aS'--ref'
p18
aS'/PHShome/hw878/Rawdata/manta_practice.fa'
p19
aS'--align-file'
p20
aS'/PHShome/hw878/Rawdata/practice_bams/14415.fa.bam'
p21
aS'--chrom-depth'
p22
aS'/PHShome/hw878/Software/Manta/workspace/chromDepth.txt'
p23
asS'errFile'
p24
S'/PHShome/hw878/Software/Manta/workspace/pyflow.data/logs/pyflow_tasks_stderr_log.txt'
p25
sS'outFile'
p26
S'/PHShome/hw878/Software/Manta/workspace/pyflow.data/logs/pyflow_tasks_stdout_log.txt'
p27
sS'env'
p28
NsS'nCores'
p29
I1
sS'cwd'
p30
S''
p31
s.