(dp0
S'isShellCmd'
p1
I00
sS'cmd'
p2
(lp3
S'/apps/lab/miket/manta/0.29.5/libexec/EstimateSVLoci'
p4
aS'--output-file'
p5
aS'/PHShome/hw878/Software/Manta/workspace/svLocusGraph.bin.tmpdir/svLocusGraph.chromId_056_GL000198_1_0000_to_chromId_057_GL000208_1_0000.bin'
p6
aS'--align-stats'
p7
aS'/PHShome/hw878/Software/Manta/workspace/alignmentStats.xml'
p8
aS'--region'
p9
aS'GL000198.1:1-90085'
p10
ag9
aS'GL000208.1:1-92689'
p11
aS'--min-candidate-sv-size'
p12
aS'8'
p13
aS'--min-edge-observations'
p14
aS'3'
p15
aS'--ref'
p16
aS'/PHShome/hw878/Rawdata/manta_practice.fa'
p17
aS'--align-file'
p18
aS'/PHShome/hw878/Rawdata/practice_bams/14415.fa.bam'
p19
aS'--chrom-depth'
p20
aS'/PHShome/hw878/Software/Manta/workspace/chromDepth.txt'
p21
asS'errFile'
p22
S'/PHShome/hw878/Software/Manta/workspace/pyflow.data/logs/pyflow_tasks_stderr_log.txt'
p23
sS'outFile'
p24
S'/PHShome/hw878/Software/Manta/workspace/pyflow.data/logs/pyflow_tasks_stdout_log.txt'
p25
sS'env'
p26
NsS'nCores'
p27
I1
sS'cwd'
p28
S''
p29
s.