(dp0
S'isShellCmd'
p1
I00
sS'cmd'
p2
(lp3
S'/apps/lab/miket/manta/0.29.5/libexec/GetChromDepth'
p4
aS'--align-file'
p5
aS'/PHShome/hw878/Rawdata/practice_bams/14415.fa.bam'
p6
aS'--output'
p7
aS'/PHShome/hw878/Software/Manta/workspace/chromDepth.txt.tmpdir/chromDepth.txt.000.txt.tmpdir/chromDepth.txt.000.txt_032_GL000201_1_to_036_GL000203_1'
p8
aS'--chrom'
p9
aS'GL000201.1'
p10
ag9
aS'GL000247.1'
p11
ag9
aS'GL000245.1'
p12
ag9
aS'GL000197.1'
p13
ag9
aS'GL000203.1'
p14
asS'errFile'
p15
S'/PHShome/hw878/Software/Manta/workspace/pyflow.data/logs/pyflow_tasks_stderr_log.txt'
p16
sS'outFile'
p17
S'/PHShome/hw878/Software/Manta/workspace/pyflow.data/logs/pyflow_tasks_stdout_log.txt'
p18
sS'env'
p19
NsS'nCores'
p20
I1
sS'cwd'
p21
S''
p22
s.