(dp0
S'isShellCmd'
p1
I01
sS'cmd'
p2
S'"/usr/bin/python" -E "/apps/lab/miket/manta/0.29.5/libexec/sortVcf.py" -u -f "/PHShome/hw878/Software/Manta/workspace/svHyGen/list.sortDiploidSV.txt" > "/PHShome/hw878/Software/Manta/workspace/svHyGen/diploidSV.vcf.temp" && "/usr/bin/python" -E "/apps/lab/miket/manta/0.29.5/libexec/ploidyFilter.py" "/PHShome/hw878/Software/Manta/workspace/svHyGen/diploidSV.vcf.temp" | "/apps/lab/miket/manta/0.29.5/libexec/bgzip" -c > "/PHShome/hw878/Software/Manta/results/variants/diploidSV.vcf.gz" && rm -f "/PHShome/hw878/Software/Manta/workspace/svHyGen/diploidSV.vcf.temp"'
p3
sS'errFile'
p4
S'/PHShome/hw878/Software/Manta/workspace/pyflow.data/logs/pyflow_tasks_stderr_log.txt'
p5
sS'outFile'
p6
S'/PHShome/hw878/Software/Manta/workspace/pyflow.data/logs/pyflow_tasks_stdout_log.txt'
p7
sS'env'
p8
NsS'nCores'
p9
I1
sS'cwd'
p10
S''
p11
s.