(dp0
S'isShellCmd'
p1
I00
sS'cmd'
p2
(lp3
S'/apps/lab/miket/manta/0.29.5/libexec/GetChromDepth'
p4
aS'--align-file'
p5
aS'/PHShome/hw878/Rawdata/practice_bams/14415.fa.bam'
p6
aS'--output'
p7
aS'/PHShome/hw878/Software/Manta/workspace/chromDepth.txt.tmpdir/chromDepth.txt.000.txt.tmpdir/chromDepth.txt.000.txt_050_GL000243_1_to_053_GL000237_1'
p8
aS'--chrom'
p9
aS'GL000243.1'
p10
ag9
aS'GL000242.1'
p11
ag9
aS'GL000230.1'
p12
ag9
aS'GL000237.1'
p13
asS'errFile'
p14
S'/PHShome/hw878/Software/Manta/workspace/pyflow.data/logs/pyflow_tasks_stderr_log.txt'
p15
sS'outFile'
p16
S'/PHShome/hw878/Software/Manta/workspace/pyflow.data/logs/pyflow_tasks_stdout_log.txt'
p17
sS'env'
p18
NsS'nCores'
p19
I1
sS'cwd'
p20
S''
p21
s.