(dp0
S'isShellCmd'
p1
I00
sS'cmd'
p2
(lp3
S'/apps/lab/miket/manta/0.29.5/libexec/EstimateSVLoci'
p4
aS'--output-file'
p5
aS'/PHShome/hw878/Software/Manta/workspace/svLocusGraph.bin.tmpdir/svLocusGraph.chromId_032_GL000201_1_0000_to_chromId_036_GL000203_1_0000.bin'
p6
aS'--align-stats'
p7
aS'/PHShome/hw878/Software/Manta/workspace/alignmentStats.xml'
p8
aS'--region'
p9
aS'GL000201.1:1-36148'
p10
ag9
aS'GL000247.1:1-36422'
p11
ag9
aS'GL000245.1:1-36651'
p12
ag9
aS'GL000197.1:1-37175'
p13
ag9
aS'GL000203.1:1-37498'
p14
aS'--min-candidate-sv-size'
p15
aS'8'
p16
aS'--min-edge-observations'
p17
aS'3'
p18
aS'--ref'
p19
aS'/PHShome/hw878/Rawdata/manta_practice.fa'
p20
aS'--align-file'
p21
aS'/PHShome/hw878/Rawdata/practice_bams/14415.fa.bam'
p22
aS'--chrom-depth'
p23
aS'/PHShome/hw878/Software/Manta/workspace/chromDepth.txt'
p24
asS'errFile'
p25
S'/PHShome/hw878/Software/Manta/workspace/pyflow.data/logs/pyflow_tasks_stderr_log.txt'
p26
sS'outFile'
p27
S'/PHShome/hw878/Software/Manta/workspace/pyflow.data/logs/pyflow_tasks_stdout_log.txt'
p28
sS'env'
p29
NsS'nCores'
p30
I1
sS'cwd'
p31
S''
p32
s.