(dp0
S'manta'
p1
(dp2
S'mantaMergeStatsBin'
p3
S'/apps/lab/miket/manta/0.29.5/libexec/MergeAlignmentStats'
p4
sS'isExome'
p5
I00
sS'minPassDiploidVariantScore'
p6
S'20'
p7
sS'referenceFasta'
p8
S'/PHShome/hw878/Rawdata/manta_practice.fa'
p9
sS'scanSizeMb'
p10
I12
sS'minPassSomaticScore'
p11
S'30'
p12
sS'normalBamList'
p13
(lp14
S'/PHShome/hw878/Rawdata/practice_bams/14415.fa.bam'
p15
asS'estimateMemMb'
p16
I2048
sS'mantaSortVcf'
p17
S'/apps/lab/miket/manta/0.29.5/libexec/sortVcf.py'
p18
sS'hyGenSGEMemMb'
p19
I4096
sS'libexecDir'
p20
S'/apps/lab/miket/manta/0.29.5/libexec'
p21
sS'isRetainTempFiles'
p22
I00
sS'alignerMode'
p23
S'isaac'
p24
sS'isRNA'
p25
I00
sS'mantaSortEdgeLogs'
p26
S'/apps/lab/miket/manta/0.29.5/libexec/sortEdgeLogs.py'
p27
sS'tabixBin'
p28
S'/apps/lab/miket/manta/0.29.5/libexec/tabix'
p29
sS'mantaGraphMergeBin'
p30
S'/apps/lab/miket/manta/0.29.5/libexec/MergeSVLoci'
p31
sS'mantaPloidyFilter'
p32
S'/apps/lab/miket/manta/0.29.5/libexec/ploidyFilter.py'
p33
sS'genomeRegionList'
p34
NsS'useExistingAlignStats'
p35
I00
sS'vcfCmdlineSwapper'
p36
S'/apps/lab/miket/manta/0.29.5/libexec/vcfCmdlineSwapper.py'
p37
sS'mantaExtraSmallVcf'
p38
S'/apps/lab/miket/manta/0.29.5/libexec/extractSmallIndelCandidates.py'
p39
sS'mantaStatsSummaryBin'
p40
S'/apps/lab/miket/manta/0.29.5/libexec/SummarizeAlignmentStats'
p41
sS'minScoredVariantSize'
p42
S'51'
p43
sS'mantaGraphStatsBin'
p44
S'/apps/lab/miket/manta/0.29.5/libexec/SummarizeSVLoci'
p45
sS'mantaGraphCheckBin'
p46
S'/apps/lab/miket/manta/0.29.5/libexec/CheckSVLoci'
p47
sS'minSomaticScore'
p48
S'10'
p49
sS'minCandidateVariantSize'
p50
S'8'
p51
sS'nonlocalWorkBins'
p52
I256
sS'getChromDepthBin'
p53
S'/apps/lab/miket/manta/0.29.5/libexec/GetChromDepth'
p54
sS'minPassDiploidGTScore'
p55
S'15'
p56
sS'useExistingChromDepths'
p57
I00
sS'mergeChromDepth'
p58
S'/apps/lab/miket/manta/0.29.5/libexec/mergeChromDepth.py'
p59
sS'regionStrList'
p60
NsS'catScript'
p61
S'/apps/lab/miket/manta/0.29.5/libexec/cat.py'
p62
sS'runDir'
p63
S'/PHShome/hw878/Software/Manta'
p64
sS'hyGenLocalMemMb'
p65
I2048
sS'mantaGraphBin'
p66
S'/apps/lab/miket/manta/0.29.5/libexec/EstimateSVLoci'
p67
sS'isUnstrandedRNA'
p68
I00
sS'mergeMemMb'
p69
I4096
sS'userConfigPath'
p70
NsS'minEdgeObservations'
p71
S'3'
p72
sS'minDiploidVariantScore'
p73
S'10'
p74
sS'minCandidateSpanningCount'
p75
g72
sS'mantaStatsBin'
p76
S'/apps/lab/miket/manta/0.29.5/libexec/GetAlignmentStats'
p77
sS'mantaHyGenBin'
p78
S'/apps/lab/miket/manta/0.29.5/libexec/GenerateSVCandidates'
p79
sS'htsfileBin'
p80
S'/apps/lab/miket/manta/0.29.5/libexec/htsfile'
p81
sS'mantaStatsMergeBin'
p82
S'/apps/lab/miket/manta/0.29.5/libexec/MergeEdgeStats'
p83
sS'bgzipBin'
p84
S'/apps/lab/miket/manta/0.29.5/libexec/bgzip'
p85
sS'configCommandLine'
p86
(lp87
S'/apps/lab/miket/manta/0.29.5/bin/configManta.py'
p88
aS'--bam'
p89
aS'/PHShome/hw878/Rawdata/practice_bams/14415.fa.bam'
p90
aS'--referenceFasta'
p91
aS'/PHShome/hw878/Rawdata/manta_practice.fa'
p92
aS'--runDir'
p93
aS'./'
p94
asS'tumorBamList'
p95
Nss.