(dp0
S'isShellCmd'
p1
I00
sS'cmd'
p2
(lp3
S'/apps/lab/miket/manta/0.29.5/libexec/SummarizeSVLoci'
p4
aS'--global'
p5
aS'--graph-file'
p6
aS'/PHShome/hw878/Software/Manta/workspace/svLocusGraph.bin'
p7
aS'--output-file'
p8
aS'/PHShome/hw878/Software/Manta/results/stats/svLocusGraphStats.tsv'
p9
asS'errFile'
p10
S'/PHShome/hw878/Software/Manta/workspace/pyflow.data/logs/pyflow_tasks_stderr_log.txt'
p11
sS'outFile'
p12
S'/PHShome/hw878/Software/Manta/workspace/pyflow.data/logs/pyflow_tasks_stdout_log.txt'
p13
sS'env'
p14
NsS'nCores'
p15
I1
sS'cwd'
p16
S''
p17
s.